(lp1
(lp2
S'STR'
p3
aS'GATGATGATGATGATGAT'
p4
aI1787
aI6
aa(lp5
g3
aS'ATTTGATTTGATTTGATTTGATTTGATTTGATTTGATTTGATTTGATTTGATTTGATTTGATTTGATTTGATTTGATTTGATTTGATTTGATTTG'
p6
aI2286
aI19
aa(lp7
g3
aS'GCGCAGCGCAGCGCAGCGCAGCGCAGCGCAGCGCAGCGCAGCGCAGCGCAGCGCA'
p8
aI6085
aI11
aa(lp9
g3
aS'CAACAACAACAACAACAACAACAACAA'
p10
aI9561
aI9
aa.