(lp1
(lp2
S'STR'
p3
aS'GGGTGGGTGGGTGGGTGGGTGGGTGGGTGGGTGGGTGGGTGGGTGGGTGGGTGGGTGGGTGGGT'
p4
aI977
aI16
aa(lp5
g3
aS'TTGCTTTGCTTTGCTTTGCTTTGCTTTGCT'
p6
aI7438
aI6
aa(lp7
g3
aS'GGAGGAGGAGGAGGAGGAGGAGGAGGAGGAGGAGGAGGAGGAGGAGGAGGAGGAGGAGGAGGAGGAGGAGGAGGAGGAGGAGGAGGAGGAGGAGGAGGAGGAGGAGGAGGAGGAGGAGGAGGAGGAGGAGGAGGAGGAGGA'
p8
aI11947
aI47
aa(lp9
g3
aS'ACACACACACACACACAC'
p10
aI30979
aI9
aa(lp11
g3
aS'TTAGTTTAGTTTAGTTTAGTTTAGTTTAGTTTAGTTTAGTTTAGTTTAGTTTAGTTTAGTTTAGTTTAGTTTAGTTTAGTTTAGTTTAGTTTAGTTTAGTTTAGTTTAGTTTAGTTTAGTTTAGTTTAGTTTAGT'
p12
aI31240
aI27
aa(lp13
g3
aS'CGCGCGCGCGCGCGCGCGCGCGCGCGCGCGCGCGCGCGCGCGCGCGCGCGCGCG'
p14
aI49582
aI27
aa(lp15
g3
aS'TGTGTGTGTGTGTGTGTGTGTGTGTGTGTGTGTGTGTGTGTGTGTGTGTGTGTGTGTGTGTGTGTGTGTGTGTGTGTGTGTGTGTGTGTGTGTGTGTG'
p16
aI68904
aI49
aa(lp17
g3
aS'CTCTCTCTCTCTCTCTCTCTCTCTCTCTCT'
p18
aI71480
aI15
aa(lp19
g3
aS'GTCGTCGTCGTCGTCGTCGTCGTCGTCGTCGTCGTCGTCGTCGTCGTCGTCGTCGTCGTCGTCGTCGTCGTCGTC'
p20
aI77628
aI25
aa(lp21
g3
aS'AACTAACTAACTAACTAACTAACTAACTAACTAACTAACTAACTAACTAACTAACTAACTAACTAACTAACTAACTAACTAACTAACTAACTAACTAACTAACTAACTAACTAACTAACTAACTAACTAACTAACTAACTAACT'
p22
aI96106
aI36
aa(lp23
g3
aS'GTGGGTGGGTGGGTGGGTGGGTGGGTGGGTGGGTGGGTGGGTGGGTGGGTGGGTGGGTGGGTGGGTGGGTGGGTGGGTGGGTGGGTGGGTGGGTGGGTGGGTGGGTGGGTGGGTGGGTGGGTGGGTGGGTGGGTGGGTGGGTGGGTGGGTGGGTGGGTGGGTGGGTGGGTGGGTGGGTGGGTGGGTGGGTGGGTGGGTGG'
p24
aI106588
aI50
aa(lp25
g3
aS'GAGAGAGAGAGAGA'
p26
aI114977
aI7
aa(lp27
g3
aS'CAAACAAACAAACAAACAAACAAACAAACAAACAAACAAACAAACAAACAAA'
p28
aI122678
aI13
aa(lp29
g3
aS'ATTTATTTATTTATTTATTTATTTATTTATTTATTTATTTATTTATTTATTTATTTATTTATTTATTTATTTATTTATTTATTTATTTATTTATTT'
p30
aI130013
aI24
aa(lp31
g3
aS'ATAATAATAATAATAATAATAATAATAATAATAATAATAATAATAATAATAATAATAATAATAATAATAATAATAATA'
p32
aI133868
aI26
aa(lp33
g3
aS'TGTGTGTGTGTGTGTGTGTGTGTGTGTGTGTGTGTGTGTGTGTGTGTGTGTGTGTGTGTGTGTGTGTGTGTG'
p34
aI157765
aI36
aa(lp35
g3
aS'GTATGTATGTATGTATGTATGTATGTATGTATGTATGTATGTATGTATGTATGTATGTATGTATGTATGTATGTATGTATGTATGTATGTATGTATGTATGTATGTATGTATGTATGTATGTATGTATGTATGTATGTATGTATGTATGTATGTATGTATGTATGTATGTAT'
p36
aI174360
aI43
aa(lp37
g3
aS'CCTGCCTGCCTGCCTGCCTGCCTGCCTGCCTGCCTGCCTGCCTGCCTGCCTGCCTGCCTGCCTGCCTGCCTGCCTGCCTGCCTGCCTGCCTGCCTGCCTGCCTGCCTGCCTGCCTGCCTGCCTGCCTGCCTGCCTGCCTGCCTGCCTGCCTGCCTGCCTGCCTGCCTGCCTGCCTGCCTGCCTGCCTG'
p38
aI180919
aI47
aa(lp39
g3
aS'GCACGCACGCACGCACGCACGCACGCACGCACGCACGCACGCACGCACGCACGCACGCACGCACGCACGCACGCACGCACGCACGCACGCACGCACGCACGCACGCACGCACGCACGCACGCACGCACGCACGCACGCAC'
p40
aI203014
aI35
aa(lp41
g3
aS'AGGCAGGCAGGCAGGCAGGCAGGCAGGCAGGCAGGCAGGCAGGCAGGCAGGCAGGCAGGCAGGCAGGCAGGCAGGCAGGCAGGCAGGCAGGC'
p42
aI209113
aI23
aa(lp43
g3
aS'GTGTGTGTGTGTGTGTGTGTGTGTGTGTGTGTGTGTGTGTGTGTGTGTGTGTGTGTGTGTGTGTGTGTGTGTGT'
p44
aI239700
aI37
aa(lp45
g3
aS'AGCAGCAGCAGCAGCAGCAGCAGCAGCAGCAGCAGCAGCAGCAGCAGCAGC'
p46
aI251479
aI17
aa(lp47
g3
aS'CACACACACACACACACACACACACACACACACACACACACACACACACA'
p48
aI259229
aI25
aa(lp49
g3
aS'CTAGCTAGCTAGCTAGCTAGCTAGCTAGCTAGCTAGCTAGCTAGCTAGCTAGCTAGCTAGCTAGCTAGCTAGCTAGCTAGCTAGCTAG'
p50
aI271355
aI22
aa(lp51
g3
aS'CCTTCCTTCCTTCCTTCCTTCCTTCCTTCCTTCCTTCCTTCCTTCCTTCCTTCCTTCCTTCCTTCCTTCCTTCCTTCCTTCCTTCCTTCCTTCCTTCCTTCCTTCCTT'
p52
aI273988
aI27
aa(lp53
g3
aS'CTTGCTTGCTTGCTTGCTTGCTTGCTTGCTTGCTTGCTTGCTTGCTTGCTTGCTTGCTTGCTTGCTTGCTTGCTTGCTTGCTTGCTTGCTTGCTTGCTTG'
p54
aI277246
aI25
aa(lp55
g3
aS'TAGGGTAGGGTAGGGTAGGGTAGGGTAGGGTAGGGTAGGGTAGGGTAGGGTAGGGTAGGGTAGGGTAGGGTAGGGTAGGGTAGGGTAGGGTAGGGTAGGGTAGGGTAGGGTAGGGTAGGGTAGGGTAGGGTAGGGTAGGGTAGGGTAGGGTAGGGTAGGGTAGGGTAGGGTAGGGTAGGGTAGGG'
p56
aI279854
aI37
aa(lp57
g3
aS'TGTGTGTGTGTGTGTGTG'
p58
aI280247
aI9
aa(lp59
g3
aS'GAAGGGAAGGGAAGGGAAGGGAAGGGAAGGGAAGGGAAGGGAAGGGAAGGGAAGGGAAGGGAAGGGAAGGGAAGGGAAGGGAAGGGAAGGGAAGG'
p60
aI280610
aI19
aa(lp61
g3
aS'TGTAATGTAATGTAATGTAATGTAATGTAATGTAATGTAATGTAATGTAATGTAATGTAATGTAATGTAATGTAATGTAATGTAATGTAATGTAATGTAATGTAATGTAATGTAATGTAATGTAATGTAATGTAATGTAATGTAATGTAATGTAATGTAATGTAATGTAATGTAATGTAATGTAATGTAATGTAATGTAATGTAATGTAATGTAATGTAATGTAA'
p62
aI285580
aI45
aa(lp63
g3
aS'TGGGTGGGTGGGTGGGTGGGTGGGTGGGTGGGTGGGTGGGTGGGTGGGTGGGTGGGTGGGTGGGTGGGTGGGTGGGTGGGTGGGTGGGTGGGTGGGTGGGTGGGTGGGTGGGTGGGTGGGTGGG'
p64
aI304478
aI31
aa(lp65
g3
aS'ACGGAACGGAACGGAACGGAACGGAACGGAACGGAACGGAACGGAACGGAACGGAACGGAACGGAACGGAACGGAACGGAACGGAACGGAACGGAACGGAACGGAACGGAACGGAACGGAACGGAACGGAACGGAACGGAACGGAACGGAACGGAACGGAACGGAACGGAACGGAACGGAACGGAACGGAACGGAACGGAACGGAACGGAACGGAACGGAACGGAACGGAACGGAACGGAACGGAACGGA'
p66
aI306319
aI50
aa(lp67
g3
aS'ATATATATATATATATATATATATATATATATATATATAT'
p68
aI316312
aI20
aa(lp69
g3
aS'GTTGTTGTTGTTGTTGTTGTTGTTGTTGTTGTTGTTGTTGTTGTTGTTGTTGTTGTTGTTGTTGTT'
p70
aI339162
aI22
aa(lp71
g3
aS'GAGAGAGAGAGAGAGAGAGAGAGAGAGAGAGA'
p72
aI359077
aI16
aa(lp73
g3
aS'GACCGACCGACCGACCGACCGACCGACCGACCGACCGACCGACCGACCGACCGACCGACCGACCGACCGACCGACCGACCGACCGACCGACCGACCGACCGACCGACCGACCGACCGACCGACCGACCGACCGACCGACCGACCGACCGACCGACCGACCGACCGACCGACCGACCGACCGACCGACCGACC'
p74
aI361093
aI48
aa(lp75
g3
aS'CGCGCGCGCGCGCGCGCGCGCGCGCGCGCGCGCGCGCGCGCGCGCGCGCGCGCGCGCGCGCGCGCGCGCGCGCGCGCG'
p76
aI372414
aI39
aa(lp77
g3
aS'CAGCAGCAGCAGCAGCAGCAGCAGCAGCAGCAGCAGCAGCAGCAGCAGCAGCAGCAGCAGCAGCAGCAGCAGCAGCAGCAGCAGCAGCAGCAGCAGCAGCAGCAGCAGCAGCAGCAGCAGCAG'
p78
aI399382
aI41
aa(lp79
g3
aS'CCAGCCAGCCAGCCAGCCAGCCAGCCAGCCAGCCAGCCAGCCAGCCAGCCAGCCAGCCAGCCAGCCAGCCAGCCAGCCAGCCAGCCAGCCAGCCAGCCAGCCAGCCAGCCAGCCAGCCAGCCAGCCAGCCAGCCAGCCAGCCAGCCAGCCAGCCAGCCAG'
p80
aI451432
aI40
aa(lp81
g3
aS'AAGGAAGGAAGGAAGGAAGGAAGGAAGGAAGGAAGGAAGGAAGG'
p82
aI475396
aI11
aa(lp83
g3
aS'ATCTAATCTAATCTAATCTAATCTAATCTAATCTAATCTAATCTAATCTAATCTAATCTAATCTA'
p84
aI494848
aI13
aa(lp85
g3
aS'AGTAGTAGTAGTAGTAGTAGTAGTAGTAGTAGTAGTAGTAGTAGTAGTAGTAGTAGTAGTAGTAGTAGTAGTAGTAGTAGTAGTAGTAGTAGTAGTAGTAGTAGTAGTAGTAGTAGTAGTAGTAGT'
p86
aI510572
aI42
aa(lp87
g3
aS'ATAGCATAGCATAGCATAGCATAGCATAGCATAGCATAGCATAGCATAGCATAGCATAGCATAGCATAGCATAGCATAGCATAGCATAGCATAGCATAGCATAGCATAGCATAGCATAGCATAGCATAGCATAGCATAGC'
p88
aI525928
aI28
aa(lp89
g3
aS'TTTATTTTATTTTATTTTATTTTATTTTATTTTATTTTATTTTATTTTATTTTATTTTATTTTATTTTATTTTATTTTATTTTATTTTATTTTATTTTATTTTATTTTATTTTATTTTATTTTATTTTATTTTATTTTATTTTATTTTATTTTATTTTAT'
p90
aI539071
aI32
aa(lp91
g3
aS'ACCAACCAACCAACCAACCAACCAACCAACCAACCAACCAACCAACCAACCAACCAACCAACCAACCAACCAACCAACCAACCAACCAACCAACCAACCAACCAACCAACCAACCAACCAACCAACCAACCAACCAACCAACCAACCAACCAACCAACCAACCAACCAACCAACCAACCAACCAACCAACCAACCAACCA'
p92
aI549457
aI50
aa(lp93
g3
aS'TCAGATCAGATCAGATCAGATCAGATCAGATCAGATCAGATCAGATCAGATCAGATCAGATCAGATCAGATCAGATCAGATCAGATCAGATCAGATCAGATCAGATCAGATCAGATCAGA'
p94
aI555576
aI24
aa(lp95
g3
aS'CTCTCTCTCTCTCTCTCTCTCTCTCTCTCTCTCTCTCTCTCTCTCTCT'
p96
aI587842
aI24
aa(lp97
g3
aS'CCTCCCTCCCTCCCTCCCTCCCTCCCTCCCTCCCTCCCTCCCTCCCTCCCTCCCTCCCTCCCTCCCTCCCTCCCTCCCTCCCTC'
p98
aI606508
aI21
aa(lp99
g3
aS'GCGGAGCGGAGCGGAGCGGAGCGGAGCGGAGCGGAGCGGAGCGGAGCGGAGCGGAGCGGAGCGGAGCGGAGCGGAGCGGA'
p100
aI609998
aI16
aa(lp101
g3
aS'TGTAGTGTAGTGTAGTGTAGTGTAGTGTAGTGTAGTGTAGTGTAGTGTAGTGTAGTGTAGTGTAGTGTAGTGTAGTGTAGTGTAGTGTAGTGTAGTGTAGTGTAGTGTAGTGTAGTGTAGTGTAGTGTAGTGTAGTGTAGTGTAGTGTAGTGTAGTGTAGTGTAGTGTAGTGTAGTGTAGTGTAGTGTAGTGTAGTGTAGTGTAGTGTAGTGTAGTGTAGTGTAG'
p102
aI618412
aI45
aa(lp103
g3
aS'CACCACCACCACCACCACCACCACCACCACCACCAC'
p104
aI662683
aI12
aa(lp105
g3
aS'TATATATATATATATATATATATATATATATATATATATATATATATATA'
p106
aI681841
aI25
aa(lp107
g3
aS'TATATATATATATATATATATATATATATATATATATATATATATATATA'
p108
aI690342
aI25
aa(lp109
g3
aS'TCTCTCTCTCTCTCTCTCTCTCTCTCTCTCTCTCTCTCTCTCTCTCTCTCTCTCTCTCTCTCTCTCTCTCTCTCTCTCTCTCTC'
p110
aI697573
aI42
aa(lp111
g3
aS'GCGACGCGACGCGACGCGACGCGACGCGACGCGACGCGACGCGACGCGACGCGACGCGACGCGACGCGAC'
p112
aI722535
aI14
aa(lp113
g3
aS'CAGCAGCAGCAGCAGCAGCAGCAGCAGCAGCAGCAGCAGCAGCAG'
p114
aI732863
aI15
aa(lp115
g3
aS'CACCACCACCACCACCACCACCACCACCACCACCACCACCACCACCACCACCACCACCACCAC'
p116
aI753667
aI21
aa(lp117
g3
aS'GTGTGTGTGTGT'
p118
aI755201
aI6
aa(lp119
g3
aS'ATGATGATGATGATGATGATGATGATGATGATGATGATGATGATGATGATGATGATGATGATGATGATGATGATGATGATGATGATGATGATGATGATGATGATGATGATGATGATGATGATGATGATGATGATGATG'
p120
aI774721
aI46
aa(lp121
g3
aS'TTTCCTTTCCTTTCCTTTCCTTTCCTTTCCTTTCCTTTCCTTTCCTTTCCTTTCCTTTCCTTTCCTTTCCTTTCCTTTCCTTTCCTTTCCTTTCCTTTCCTTTCCTTTCCTTTCCTTTCCTTTCCTTTCCTTTCCTTTCCTTTCCTTTCCTTTCCTTTCCTTTCCTTTCCTTTCCTTTCCTTTCCTTTCCTTTCCTTTCCTTTCCTTTCCTTTCCTTTCCTTTCCTTTCCTTTCCTTTCCTTTCC'
p122
aI786503
aI49
aa(lp123
g3
aS'GCATAGCATAGCATAGCATAGCATAGCATAGCATAGCATAGCATAGCATAGCATAGCATAGCATAGCATAGCATAGCATAGCATAGCATAGCATAGCATA'
p124
aI790845
aI20
aa(lp125
g3
aS'AATAATAATAATAATAATAATAATAATAATAATAATAATAATAATAATAATAATAATAATAATAATAATAATAATAATAATAATAATAAT'
p126
aI799903
aI30
aa(lp127
g3
aS'TATATATATATATATATATATATATATATATATATATATATATATATATATATATATATATATATATATATATATATATATATATATA'
p128
aI815298
aI44
aa(lp129
g3
aS'GGCGGCGGCGGCGGCGGCGGCGGCGGCGGC'
p130
aI828358
aI10
aa(lp131
g3
aS'TGGGTGGGTGGGTGGGTGGGTGGGTGGGTGGGTGGGTGGGTGGGTGGGTGGGTGGGTGGGTGGGTGGGTGGGTGGGTGGGTGGGTGGGTGGGTGGGTGGGTGGGTGGGTGGGTGGG'
p132
aI831518
aI29
aa(lp133
g3
aS'GTTACGTTACGTTACGTTACGTTACGTTACGTTACGTTACGTTACGTTACGTTACGTTACGTTACGTTACGTTACGTTACGTTACGTTACGTTACGTTACGTTACGTTACGTTACGTTAC'
p134
aI834300
aI24
aa(lp135
g3
aS'GCGCGCGCGCGCGCGCGCGCGCGCGCGCGCGCGCGCGCGCGCGCGCGCGCGCGCGCGCGCGCGCGCGCGCGCGCGCGCGC'
p136
aI859119
aI40
aa(lp137
g3
aS'TTGTCTTGTCTTGTCTTGTCTTGTCTTGTCTTGTCTTGTCTTGTCTTGTCTTGTCTTGTCTTGTCTTGTC'
p138
aI863055
aI14
aa(lp139
g3
aS'GACGACGACGACGACGACGACGACGAC'
p140
aI890993
aI9
aa(lp141
g3
aS'ACACACACACACACACACACACACACACACACACACACACAC'
p142
aI940540
aI21
aa(lp143
g3
aS'CCCGGCCCGGCCCGGCCCGGCCCGGCCCGGCCCGGCCCGGCCCGGCCCGGCCCGGCCCGGCCCGGCCCGGCCCGGCCCGGCCCGG'
p144
aI960711
aI17
aa(lp145
g3
aS'GAGAGAGAGAGAGAGAGAGAGAGAGAGAGAGAGAGAGA'
p146
aI966459
aI19
aa(lp147
g3
aS'AGAGAGAGAGAGAGAGAGAGAGAGAGAGAGAGAGAGAGAGAGAGAGAGAGAGAGAGAGAGAGAGAGAGAGAGAGAGAGAGAGAGAGAG'
p148
aI966719
aI44
aa(lp149
g3
aS'TGCCGTGCCGTGCCGTGCCGTGCCGTGCCGTGCCGTGCCGTGCCGTGCCGTGCCGTGCCGTGCCGTGCCGTGCCGTGCCGTGCCGTGCCGTGCCGTGCCGTGCCGTGCCGTGCCGTGCCGTGCCGTGCCGTGCCGTGCCGTGCCGTGCCGTGCCGTGCCGTGCCGTGCCGTGCCGTGCCGTGCCGTGCCGTGCCGTGCCGTGCCGTGCCGTGCCGTGCCGTGCCGTGCCGTGCCG'
p150
aI978960
aI47
aa.